target datalayout = "e-m:e-p270:32:32-p271:32:32-p272:64:64-i64:64-i128:128-f80:128-n8:16:32:64-S128"
target triple = "x86_64-unknown-linux-gnu"

%struct.Type = type { i32, i32, i32, i8, i8, ptr, ptr, ptr, ptr, i32, ptr, ptr, ptr, i8, i8, ptr, ptr, i8, ptr }

; Function Attrs: nounwind uwtable
define dso_local zeroext i1 @is_compatible(ptr noundef %t1, ptr noundef %t2) #0 {
entry:
  %retval = alloca i1, align 1
  %t1.addr = alloca ptr, align 8
  %t2.addr = alloca ptr, align 8
  %p1 = alloca ptr, align 8
  %p2 = alloca ptr, align 8
  store ptr %t1, ptr %t1.addr, align 8
  store ptr %t2, ptr %t2.addr, align 8
  %0 = load ptr, ptr %t1.addr, align 8
  %1 = load ptr, ptr %t2.addr, align 8
  %cmp = icmp eq ptr %0, %1
  br i1 %cmp, label %if.then, label %if.end

if.then:                                          ; preds = %entry
  store i1 true, ptr %retval, align 1
  br label %return

if.end:                                           ; preds = %entry
  %2 = load ptr, ptr %t1.addr, align 8
  %origin = getelementptr inbounds %struct.Type, ptr %2, i32 0, i32 5
  %3 = load ptr, ptr %origin, align 8
  %tobool = icmp ne ptr %3, null
  br i1 %tobool, label %if.then1, label %if.end3

if.then1:                                         ; preds = %if.end
  %4 = load ptr, ptr %t1.addr, align 8
  %origin2 = getelementptr inbounds %struct.Type, ptr %4, i32 0, i32 5
  %5 = load ptr, ptr %origin2, align 8
  %6 = load ptr, ptr %t2.addr, align 8
  %call = call zeroext i1 @is_compatible(ptr noundef %5, ptr noundef %6)
  store i1 %call, ptr %retval, align 1
  br label %return

if.end3:                                          ; preds = %if.end
  %7 = load ptr, ptr %t2.addr, align 8
  %origin4 = getelementptr inbounds %struct.Type, ptr %7, i32 0, i32 5
  %8 = load ptr, ptr %origin4, align 8
  %tobool5 = icmp ne ptr %8, null
  br i1 %tobool5, label %if.then6, label %if.end9

if.then6:                                         ; preds = %if.end3
  %9 = load ptr, ptr %t1.addr, align 8
  %10 = load ptr, ptr %t2.addr, align 8
  %origin7 = getelementptr inbounds %struct.Type, ptr %10, i32 0, i32 5
  %11 = load ptr, ptr %origin7, align 8
  %call8 = call zeroext i1 @is_compatible(ptr noundef %9, ptr noundef %11)
  store i1 %call8, ptr %retval, align 1
  br label %return

if.end9:                                          ; preds = %if.end3
  %12 = load ptr, ptr %t1.addr, align 8
  %kind = getelementptr inbounds %struct.Type, ptr %12, i32 0, i32 0
  %13 = load i32, ptr %kind, align 8
  %14 = load ptr, ptr %t2.addr, align 8
  %kind10 = getelementptr inbounds %struct.Type, ptr %14, i32 0, i32 0
  %15 = load i32, ptr %kind10, align 8
  %cmp11 = icmp ne i32 %13, %15
  br i1 %cmp11, label %if.then12, label %if.end13

if.then12:                                        ; preds = %if.end9
  store i1 false, ptr %retval, align 1
  br label %return

if.end13:                                         ; preds = %if.end9
  %16 = load ptr, ptr %t1.addr, align 8
  %kind14 = getelementptr inbounds %struct.Type, ptr %16, i32 0, i32 0
  %17 = load i32, ptr %kind14, align 8
  switch i32 %17, label %sw.epilog [
    i32 2, label %sw.bb
    i32 3, label %sw.bb
    i32 4, label %sw.bb
    i32 5, label %sw.bb
    i32 6, label %sw.bb21
    i32 7, label %sw.bb21
    i32 8, label %sw.bb21
    i32 10, label %sw.bb22
    i32 11, label %sw.bb25
    i32 12, label %sw.bb52
  ]

sw.bb:                                            ; preds = %if.end13, %if.end13, %if.end13, %if.end13
  %18 = load ptr, ptr %t1.addr, align 8
  %is_unsigned = getelementptr inbounds %struct.Type, ptr %18, i32 0, i32 3
  %19 = load i8, ptr %is_unsigned, align 4
  %tobool15 = trunc i8 %19 to i1
  %conv = zext i1 %tobool15 to i32
  %20 = load ptr, ptr %t2.addr, align 8
  %is_unsigned16 = getelementptr inbounds %struct.Type, ptr %20, i32 0, i32 3
  %21 = load i8, ptr %is_unsigned16, align 4
  %tobool17 = trunc i8 %21 to i1
  %conv18 = zext i1 %tobool17 to i32
  %cmp19 = icmp eq i32 %conv, %conv18
  store i1 %cmp19, ptr %retval, align 1
  br label %return

sw.bb21:                                          ; preds = %if.end13, %if.end13, %if.end13
  store i1 true, ptr %retval, align 1
  br label %return

sw.bb22:                                          ; preds = %if.end13
  %22 = load ptr, ptr %t1.addr, align 8
  %base = getelementptr inbounds %struct.Type, ptr %22, i32 0, i32 6
  %23 = load ptr, ptr %base, align 8
  %24 = load ptr, ptr %t2.addr, align 8
  %base23 = getelementptr inbounds %struct.Type, ptr %24, i32 0, i32 6
  %25 = load ptr, ptr %base23, align 8
  %call24 = call zeroext i1 @is_compatible(ptr noundef %23, ptr noundef %25)
  store i1 %call24, ptr %retval, align 1
  br label %return

sw.bb25:                                          ; preds = %if.end13
  %26 = load ptr, ptr %t1.addr, align 8
  %return_ty = getelementptr inbounds %struct.Type, ptr %26, i32 0, i32 15
  %27 = load ptr, ptr %return_ty, align 8
  %28 = load ptr, ptr %t2.addr, align 8
  %return_ty26 = getelementptr inbounds %struct.Type, ptr %28, i32 0, i32 15
  %29 = load ptr, ptr %return_ty26, align 8
  %call27 = call zeroext i1 @is_compatible(ptr noundef %27, ptr noundef %29)
  br i1 %call27, label %if.end29, label %if.then28

if.then28:                                        ; preds = %sw.bb25
  store i1 false, ptr %retval, align 1
  br label %return

if.end29:                                         ; preds = %sw.bb25
  %30 = load ptr, ptr %t1.addr, align 8
  %is_variadic = getelementptr inbounds %struct.Type, ptr %30, i32 0, i32 17
  %31 = load i8, ptr %is_variadic, align 8
  %tobool30 = trunc i8 %31 to i1
  %conv31 = zext i1 %tobool30 to i32
  %32 = load ptr, ptr %t2.addr, align 8
  %is_variadic32 = getelementptr inbounds %struct.Type, ptr %32, i32 0, i32 17
  %33 = load i8, ptr %is_variadic32, align 8
  %tobool33 = trunc i8 %33 to i1
  %conv34 = zext i1 %tobool33 to i32
  %cmp35 = icmp ne i32 %conv31, %conv34
  br i1 %cmp35, label %if.then37, label %if.end38

if.then37:                                        ; preds = %if.end29
  store i1 false, ptr %retval, align 1
  br label %return

if.end38:                                         ; preds = %if.end29
  %34 = load ptr, ptr %t1.addr, align 8
  %params = getelementptr inbounds %struct.Type, ptr %34, i32 0, i32 16
  %35 = load ptr, ptr %params, align 8
  store ptr %35, ptr %p1, align 8
  %36 = load ptr, ptr %t2.addr, align 8
  %params39 = getelementptr inbounds %struct.Type, ptr %36, i32 0, i32 16
  %37 = load ptr, ptr %params39, align 8
  store ptr %37, ptr %p2, align 8
  br label %for.cond

for.cond:                                         ; preds = %for.inc, %if.end38
  %38 = load ptr, ptr %p1, align 8
  %tobool40 = icmp ne ptr %38, null
  br i1 %tobool40, label %land.rhs, label %land.end

land.rhs:                                         ; preds = %for.cond
  %39 = load ptr, ptr %p2, align 8
  %tobool41 = icmp ne ptr %39, null
  br label %land.end

land.end:                                         ; preds = %land.rhs, %for.cond
  %40 = phi i1 [ false, %for.cond ], [ %tobool41, %land.rhs ]
  br i1 %40, label %for.body, label %for.end

for.body:                                         ; preds = %land.end
  %41 = load ptr, ptr %p1, align 8
  %42 = load ptr, ptr %p2, align 8
  %call42 = call zeroext i1 @is_compatible(ptr noundef %41, ptr noundef %42)
  br i1 %call42, label %if.end44, label %if.then43

if.then43:                                        ; preds = %for.body
  store i1 false, ptr %retval, align 1
  br label %return

if.end44:                                         ; preds = %for.body
  br label %for.inc

for.inc:                                          ; preds = %if.end44
  %43 = load ptr, ptr %p1, align 8
  %next = getelementptr inbounds %struct.Type, ptr %43, i32 0, i32 18
  %44 = load ptr, ptr %next, align 8
  store ptr %44, ptr %p1, align 8
  %45 = load ptr, ptr %p2, align 8
  %next45 = getelementptr inbounds %struct.Type, ptr %45, i32 0, i32 18
  %46 = load ptr, ptr %next45, align 8
  store ptr %46, ptr %p2, align 8
  br label %for.cond, !llvm.loop !7

for.end:                                          ; preds = %land.end
  %47 = load ptr, ptr %p1, align 8
  %cmp46 = icmp eq ptr %47, null
  br i1 %cmp46, label %land.rhs48, label %land.end51

land.rhs48:                                       ; preds = %for.end
  %48 = load ptr, ptr %p2, align 8
  %cmp49 = icmp eq ptr %48, null
  br label %land.end51

land.end51:                                       ; preds = %land.rhs48, %for.end
  %49 = phi i1 [ false, %for.end ], [ %cmp49, %land.rhs48 ]
  store i1 %49, ptr %retval, align 1
  br label %return

sw.bb52:                                          ; preds = %if.end13
  %50 = load ptr, ptr %t1.addr, align 8
  %base53 = getelementptr inbounds %struct.Type, ptr %50, i32 0, i32 6
  %51 = load ptr, ptr %base53, align 8
  %52 = load ptr, ptr %t2.addr, align 8
  %base54 = getelementptr inbounds %struct.Type, ptr %52, i32 0, i32 6
  %53 = load ptr, ptr %base54, align 8
  %call55 = call zeroext i1 @is_compatible(ptr noundef %51, ptr noundef %53)
  br i1 %call55, label %if.end57, label %if.then56

if.then56:                                        ; preds = %sw.bb52
  store i1 false, ptr %retval, align 1
  br label %return

if.end57:                                         ; preds = %sw.bb52
  %54 = load ptr, ptr %t1.addr, align 8
  %array_len = getelementptr inbounds %struct.Type, ptr %54, i32 0, i32 9
  %55 = load i32, ptr %array_len, align 8
  %cmp58 = icmp slt i32 %55, 0
  br i1 %cmp58, label %land.lhs.true, label %land.end68

land.lhs.true:                                    ; preds = %if.end57
  %56 = load ptr, ptr %t2.addr, align 8
  %array_len60 = getelementptr inbounds %struct.Type, ptr %56, i32 0, i32 9
  %57 = load i32, ptr %array_len60, align 8
  %cmp61 = icmp slt i32 %57, 0
  br i1 %cmp61, label %land.rhs63, label %land.end68

land.rhs63:                                       ; preds = %land.lhs.true
  %58 = load ptr, ptr %t1.addr, align 8
  %array_len64 = getelementptr inbounds %struct.Type, ptr %58, i32 0, i32 9
  %59 = load i32, ptr %array_len64, align 8
  %60 = load ptr, ptr %t2.addr, align 8
  %array_len65 = getelementptr inbounds %struct.Type, ptr %60, i32 0, i32 9
  %61 = load i32, ptr %array_len65, align 8
  %cmp66 = icmp eq i32 %59, %61
  br label %land.end68

land.end68:                                       ; preds = %land.rhs63, %land.lhs.true, %if.end57
  %62 = phi i1 [ false, %land.lhs.true ], [ false, %if.end57 ], [ %cmp66, %land.rhs63 ]
  store i1 %62, ptr %retval, align 1
  br label %return

sw.epilog:                                        ; preds = %if.end13
  store i1 false, ptr %retval, align 1
  br label %return

return:                                           ; preds = %sw.epilog, %land.end68, %if.then56, %land.end51, %if.then43, %if.then37, %if.then28, %sw.bb22, %sw.bb21, %sw.bb, %if.then12, %if.then6, %if.then1, %if.then
  %63 = load i1, ptr %retval, align 1
  ret i1 %63
}