; Function Attrs: nofree nosync nounwind memory(read, inaccessiblemem: none) uwtable
define dso_local zeroext i1 @is_compatible(ptr noundef readonly %t1, ptr noundef readonly %t2) local_unnamed_addr #1 {
entry:
  br label %tailrecurse.outer

tailrecurse.outer:                                ; preds = %tailrecurse.outer.backedge, %entry
  %t1.tr.ph = phi ptr [ %t1, %entry ], [ %t1.tr.ph.be, %tailrecurse.outer.backedge ]
  %t2.tr.ph = phi ptr [ %t2, %entry ], [ %t2.tr.ph.be, %tailrecurse.outer.backedge ]
  %origin = getelementptr inbounds %struct.Type, ptr %t1.tr.ph, i64 0, i32 5
  br label %tailrecurse

tailrecurse:                                      ; preds = %tailrecurse.outer, %if.end3
  %t2.tr = phi ptr [ %1, %if.end3 ], [ %t2.tr.ph, %tailrecurse.outer ]
  %cmp = icmp eq ptr %t1.tr.ph, %t2.tr
  br i1 %cmp, label %return, label %if.end

if.end:                                           ; preds = %tailrecurse
  %0 = load ptr, ptr %origin, align 8
  %tobool.not = icmp eq ptr %0, null
  br i1 %tobool.not, label %if.end3, label %tailrecurse.outer.backedge

if.end3:                                          ; preds = %if.end
  %origin4 = getelementptr inbounds %struct.Type, ptr %t2.tr, i64 0, i32 5
  %1 = load ptr, ptr %origin4, align 8
  %tobool5.not = icmp eq ptr %1, null
  br i1 %tobool5.not, label %if.end9, label %tailrecurse

if.end9:                                          ; preds = %if.end3
  %2 = load i32, ptr %t1.tr.ph, align 8
  %3 = load i32, ptr %t2.tr, align 8
  %cmp11.not = icmp eq i32 %2, %3
  br i1 %cmp11.not, label %if.end13, label %return

if.end13:                                         ; preds = %if.end9
  switch i32 %2, label %return [
    i32 2, label %sw.bb
    i32 3, label %sw.bb
    i32 4, label %sw.bb
    i32 5, label %sw.bb
    i32 6, label %return.loopexit110
    i32 7, label %return.loopexit110
    i32 8, label %return.loopexit110
    i32 10, label %sw.bb22
    i32 11, label %sw.bb25
    i32 12, label %sw.bb52
  ]

sw.bb:                                            ; preds = %if.end13, %if.end13, %if.end13, %if.end13
  %is_unsigned = getelementptr inbounds %struct.Type, ptr %t1.tr.ph, i64 0, i32 3
  %4 = load i8, ptr %is_unsigned, align 4
  %is_unsigned16 = getelementptr inbounds %struct.Type, ptr %t2.tr, i64 0, i32 3
  %5 = load i8, ptr %is_unsigned16, align 4
  %6 = xor i8 %5, %4
  %7 = and i8 %6, 1
  %cmp19 = icmp eq i8 %7, 0
  br label %return

sw.bb22:                                          ; preds = %if.end13
  %base = getelementptr inbounds %struct.Type, ptr %t1.tr.ph, i64 0, i32 6
  %8 = load ptr, ptr %base, align 8
  %base23 = getelementptr inbounds %struct.Type, ptr %t2.tr, i64 0, i32 6
  %9 = load ptr, ptr %base23, align 8
  br label %tailrecurse.outer.backedge

tailrecurse.outer.backedge:                       ; preds = %if.end, %sw.bb22
  %t1.tr.ph.be = phi ptr [ %8, %sw.bb22 ], [ %0, %if.end ]
  %t2.tr.ph.be = phi ptr [ %9, %sw.bb22 ], [ %t2.tr, %if.end ]
  br label %tailrecurse.outer

sw.bb25:                                          ; preds = %if.end13
  %return_ty = getelementptr inbounds %struct.Type, ptr %t1.tr.ph, i64 0, i32 15
  %10 = load ptr, ptr %return_ty, align 8
  %return_ty26 = getelementptr inbounds %struct.Type, ptr %t2.tr, i64 0, i32 15
  %11 = load ptr, ptr %return_ty26, align 8
  %call27 = tail call zeroext i1 @is_compatible(ptr noundef %10, ptr noundef %11)
  br i1 %call27, label %if.end29, label %return

if.end29:                                         ; preds = %sw.bb25
  %is_variadic = getelementptr inbounds %struct.Type, ptr %t1.tr.ph, i64 0, i32 17
  %12 = load i8, ptr %is_variadic, align 8
  %is_variadic32 = getelementptr inbounds %struct.Type, ptr %t2.tr, i64 0, i32 17
  %13 = load i8, ptr %is_variadic32, align 8
  %14 = xor i8 %13, %12
  %15 = and i8 %14, 1
  %cmp35.not = icmp eq i8 %15, 0
  br i1 %cmp35.not, label %if.end38, label %return

if.end38:                                         ; preds = %if.end29
  %params = getelementptr inbounds %struct.Type, ptr %t1.tr.ph, i64 0, i32 16
  %params39 = getelementptr inbounds %struct.Type, ptr %t2.tr, i64 0, i32 16
  %p2.052 = load ptr, ptr %params39, align 8
  %p1.053 = load ptr, ptr %params, align 8
  %tobool4054 = icmp ne ptr %p1.053, null
  %tobool4155 = icmp ne ptr %p2.052, null
  %16 = select i1 %tobool4054, i1 %tobool4155, i1 false
  br i1 %16, label %for.body, label %for.end

for.body:                                         ; preds = %if.end38, %for.inc
  %p1.057 = phi ptr [ %p1.0, %for.inc ], [ %p1.053, %if.end38 ]
  %p2.056 = phi ptr [ %p2.0, %for.inc ], [ %p2.052, %if.end38 ]
  %call42 = tail call zeroext i1 @is_compatible(ptr noundef nonnull %p1.057, ptr noundef nonnull %p2.056)
  br i1 %call42, label %for.inc, label %return

for.inc:                                          ; preds = %for.body
  %next = getelementptr inbounds %struct.Type, ptr %p1.057, i64 0, i32 18
  %next45 = getelementptr inbounds %struct.Type, ptr %p2.056, i64 0, i32 18
  %p2.0 = load ptr, ptr %next45, align 8
  %p1.0 = load ptr, ptr %next, align 8
  %tobool40 = icmp ne ptr %p1.0, null
  %tobool41 = icmp ne ptr %p2.0, null
  %17 = select i1 %tobool40, i1 %tobool41, i1 false
  br i1 %17, label %for.body, label %for.end, !llvm.loop !7

for.end:                                          ; preds = %for.inc, %if.end38
  %p2.0.lcssa = phi ptr [ %p2.052, %if.end38 ], [ %p2.0, %for.inc ]
  %p1.0.lcssa = phi ptr [ %p1.053, %if.end38 ], [ %p1.0, %for.inc ]
  %cmp46 = icmp eq ptr %p1.0.lcssa, null
  %cmp49 = icmp eq ptr %p2.0.lcssa, null
  %18 = select i1 %cmp46, i1 %cmp49, i1 false
  br label %return

sw.bb52:                                          ; preds = %if.end13
  %base53 = getelementptr inbounds %struct.Type, ptr %t1.tr.ph, i64 0, i32 6
  %19 = load ptr, ptr %base53, align 8
  %base54 = getelementptr inbounds %struct.Type, ptr %t2.tr, i64 0, i32 6
  %20 = load ptr, ptr %base54, align 8
  %call55 = tail call zeroext i1 @is_compatible(ptr noundef %19, ptr noundef %20)
  br i1 %call55, label %if.end57, label %return

if.end57:                                         ; preds = %sw.bb52
  %array_len = getelementptr inbounds %struct.Type, ptr %t1.tr.ph, i64 0, i32 9
  %21 = load i32, ptr %array_len, align 8
  %cmp58 = icmp slt i32 %21, 0
  br i1 %cmp58, label %land.lhs.true, label %return

land.lhs.true:                                    ; preds = %if.end57
  %array_len60 = getelementptr inbounds %struct.Type, ptr %t2.tr, i64 0, i32 9
  %22 = load i32, ptr %array_len60, align 8
  %cmp66 = icmp eq i32 %21, %22
  br label %return

return.loopexit110:                               ; preds = %if.end13, %if.end13, %if.end13
  br label %return

return:                                           ; preds = %tailrecurse, %for.body, %if.end9, %if.end13, %return.loopexit110, %land.lhs.true, %if.end57, %sw.bb52, %if.end29, %sw.bb25, %for.end, %sw.bb
  %retval.0 = phi i1 [ %18, %for.end ], [ %cmp19, %sw.bb ], [ false, %sw.bb25 ], [ false, %if.end29 ], [ false, %sw.bb52 ], [ false, %if.end57 ], [ %cmp66, %land.lhs.true ], [ true, %return.loopexit110 ], [ false, %if.end13 ], [ false, %if.end9 ], [ false, %for.body ], [ true, %tailrecurse ]
  ret i1 %retval.0
}